Domain:
www.rent-a-bag.club

Description:
www.rent-a-bag.club 1

Encoded Certificate Signing Request:
-----BEGIN CERTIFICATE REQUEST-----
MIIC0zCCAbsCAQAwgY0xHDAaBgNVBAMME3d3dy5yZW50LWEtYmFnLmNsdWIxDzAN
BgNVBAgMBkxvbmRvbjETMBEGA1UECgwKUmVudC1hLWJhZzELMAkGA1UEBhMCR0Ix
KTAnBgkqhkiG9w0BCQEWGnBvc3RtYXN0ZXJAcmVudC1hLWJhZy5jbHViMQ8wDQYD
VQQHDAZMb25kb24wggEiMA0GCSqGSIb3DQEBAQUAA4IBDwAwggEKAoIBAQDXmULp
1fxCqhsC+ljPd9sOLQm/A6JXGt//lUO369DDKkZLXItjMgX7kL/GU92X8Xlsumo6
+3LCBtJ/S2jsAM9QELJuyzaSsD//fIQGpnY+BMI8uluwQ8i/PuWmP2lKJ3nOKipY
270zJ7dDLlExuTiye3GWT4AEuXQ/i5028zT6NPp2PScOlCmSuvEd4Og0SAB7lOB+
UuLcE41JwuXo7LsYVSNeMcNkcpjR4t3MdXJQYKDI448+9y5svwz1OyWqDaArRmPI
8OXdcdpDsnLvmFowcmpMHmgD6OlFopM9qG2rkoSYmaQkTe6E2DZUG0r5bFL2+a8u
TlRqkHo/+PGrJQzxAgMBAAGgADANBgkqhkiG9w0BAQsFAAOCAQEAuzFn4n6aEk0/
jM7NEbGkRsea5AE+5GMyD5WuCH+JCySr6qmLvnugW3C7eb7r532Wqoz9AKF44rqV
PICsR7b1ZmqK04OcLrWvc+zZIhoXCt884E++YIxiAUyyfUTSvK3SH3VThFB2JWQH
jFY3VfMC6Nr4fFMNPL68LoEWbplpoXAir0fDChgvjuSvLR4tqmfz7F13enOijak+
uZk0lBoHgCAzDzQCf7iQ+jvKQoNZwA3EJ8ftMGd+wzCHuan/qDkxZB8RVfSJ2x7E
xJWy+ZppF0yDguwbVAu/H/OZHjVjIISY78LeHnZcnkRdiT+AsRgC2D2bMtcsvrA9
RlculXUK4w==
-----END CERTIFICATE REQUEST-----
Decoded Certificate Signing Request:
Certificate Request:
    Data:
        Version: 0 (0x0)
        Subject: CN = www.rent-a-bag.club, ST = London, O = Rent-a-bag, C = GB, emailAddress = postmaster@rent-a-bag.club, L = London
        Subject Public Key Info:
            Public Key Algorithm: rsaEncryption
                Public-Key: (2048 bit)
                Modulus:
                    00:d7:99:42:e9:d5:fc:42:aa:1b:02:fa:58:cf:77:
                    db:0e:2d:09:bf:03:a2:57:1a:df:ff:95:43:b7:eb:
                    d0:c3:2a:46:4b:5c:8b:63:32:05:fb:90:bf:c6:53:
                    dd:97:f1:79:6c:ba:6a:3a:fb:72:c2:06:d2:7f:4b:
                    68:ec:00:cf:50:10:b2:6e:cb:36:92:b0:3f:ff:7c:
                    84:06:a6:76:3e:04:c2:3c:ba:5b:b0:43:c8:bf:3e:
                    e5:a6:3f:69:4a:27:79:ce:2a:2a:58:db:bd:33:27:
                    b7:43:2e:51:31:b9:38:b2:7b:71:96:4f:80:04:b9:
                    74:3f:8b:9d:36:f3:34:fa:34:fa:76:3d:27:0e:94:
                    29:92:ba:f1:1d:e0:e8:34:48:00:7b:94:e0:7e:52:
                    e2:dc:13:8d:49:c2:e5:e8:ec:bb:18:55:23:5e:31:
                    c3:64:72:98:d1:e2:dd:cc:75:72:50:60:a0:c8:e3:
                    8f:3e:f7:2e:6c:bf:0c:f5:3b:25:aa:0d:a0:2b:46:
                    63:c8:f0:e5:dd:71:da:43:b2:72:ef:98:5a:30:72:
                    6a:4c:1e:68:03:e8:e9:45:a2:93:3d:a8:6d:ab:92:
                    84:98:99:a4:24:4d:ee:84:d8:36:54:1b:4a:f9:6c:
                    52:f6:f9:af:2e:4e:54:6a:90:7a:3f:f8:f1:ab:25:
                    0c:f1
                Exponent: 65537 (0x10001)
        Attributes:
            a0:00
    Signature Algorithm: sha256WithRSAEncryption
         bb:31:67:e2:7e:9a:12:4d:3f:8c:ce:cd:11:b1:a4:46:c7:9a:
         e4:01:3e:e4:63:32:0f:95:ae:08:7f:89:0b:24:ab:ea:a9:8b:
         be:7b:a0:5b:70:bb:79:be:eb:e7:7d:96:aa:8c:fd:00:a1:78:
         e2:ba:95:3c:80:ac:47:b6:f5:66:6a:8a:d3:83:9c:2e:b5:af:
         73:ec:d9:22:1a:17:0a:df:3c:e0:4f:be:60:8c:62:01:4c:b2:
         7d:44:d2:bc:ad:d2:1f:75:53:84:50:76:25:64:07:8c:56:37:
         55:f3:02:e8:da:f8:7c:53:0d:3c:be:bc:2e:81:16:6e:99:69:
         a1:70:22:af:47:c3:0a:18:2f:8e:e4:af:2d:1e:2d:aa:67:f3:
         ec:5d:77:7a:73:a2:8d:a9:3e:b9:99:34:94:1a:07:80:20:33:
         0f:34:02:7f:b8:90:fa:3b:ca:42:83:59:c0:0d:c4:27:c7:ed:
         30:67:7e:c3:30:87:b9:a9:ff:a8:39:31:64:1f:11:55:f4:89:
         db:1e:c4:c4:95:b2:f9:9a:69:17:4c:83:82:ec:1b:54:0b:bf:
         1f:f3:99:1e:35:63:20:84:98:ef:c2:de:1e:76:5c:9e:44:5d:
         89:3f:80:b1:18:02:d8:3d:9b:32:d7:2c:be:b0:3d:46:57:2e:
         95:75:0a:e3
Encoded Key:
-----BEGIN RSA PRIVATE KEY-----
MIIEpAIBAAKCAQEA15lC6dX8QqobAvpYz3fbDi0JvwOiVxrf/5VDt+vQwypGS1yL
YzIF+5C/xlPdl/F5bLpqOvtywgbSf0to7ADPUBCybss2krA//3yEBqZ2PgTCPLpb
sEPIvz7lpj9pSid5zioqWNu9Mye3Qy5RMbk4sntxlk+ABLl0P4udNvM0+jT6dj0n
DpQpkrrxHeDoNEgAe5TgflLi3BONScLl6Oy7GFUjXjHDZHKY0eLdzHVyUGCgyOOP
PvcubL8M9Tslqg2gK0ZjyPDl3XHaQ7Jy75haMHJqTB5oA+jpRaKTPahtq5KEmJmk
JE3uhNg2VBtK+WxS9vmvLk5UapB6P/jxqyUM8QIDAQABAoIBACfckU+UnchhlQ7u
5H6vZVPwpc2oSVqbgHDL0zJtKjL7XPXQDYFwnUSO1bZAiUbvgYjFyqBPHz+abU7V
zXddCvd9rs/nSJbEeYCuL+be3hvHW3ZI6mzji3k4ktMzBC+OrumcSCoXrpqHrE2C
gcaUvVPamPy2hC/bbg/Vq2KegtwDmpl35+P1xk1eEL8yXeYtGtibKUrfsM/rF8JV
llDKKe5wRjZP2nednIONSQseVnDT0FS4HOIG0Rm7/2SkdCJncoQ9u85bSgBpdgMi
VD+o08ktM0m1pX8diZyiVF06v2PU008A3rapqlo32WpLOXuhhg7dytfrHXn6Wr8l
kcnwtnUCgYEA9aaaToEWtDBQ6t4TpcdIoVq0NsHfmNdgTjGY3Kso+bZgsUDhKp/a
Ob8AQGUZGCVc1OuUQ66JG3RrZx7tRN34eq5MHsRPiTndU7bvLIBq6LmpTTaA4fZz
bzWc2cObKXcdJRuxyd8vuS1btdhwwJXbQ+gTw+ZybmcMPV4guMpZYDcCgYEA4K6K
PwCDr4Cz97qtDzOdmAJkA4w3jDKMa9VEiYS+DpG4LUTtXcU/nNi/PDA12KzQ2t/w
+FHLM2OLwmNE4fDqmP951eLouPNeTcoLxq1wLNI5m11NQascQwWxPH8pivgiqBBe
6UJXodVGNl2GauQgWdyjq3tz7CjqX4qlON4J2BcCgYB/9mBtQotsI7sTDcoYUl5A
RzqXR5jNSmxNb0KcuMBojBuEWjKw/II2EIv1/3P6AwR/mZQrSZD8b0G/fvnEJQja
B095u3NfHXhwsluWx/Jo9sX9hcXPb40kQj5Jpb5+9CCHgwyzBwMaKEmcyXm6qJWG
oy8gnju/zQgwM4dCG45BMwKBgQC0OS0pVidLKsixKOtSa0u5OAmzktCnw5BBmwNr
769oDlkW7tgbxHG/RVk4VU+L6ytotgMbnLiLEwlzNp91QQNdEGhROb8FRCnb6frC
NjLpsQOGbTPgPfnghPtjFHllQJ7EAsWvA4k5hdLZHvIIYc7VZhdfIRqeTz+YvaTE
Vc69pwKBgQCGf/CZbfkivYWziMQXcf7ed2xXeV6DeMEPdHixsA7m/XnqM+fHOSs4
jpvu/z/oST3Qxf2gEOck4SKUSvqMNFUllNK7PiDQ6a6gSkAkKrvbA1+L5SxLQ14d
0qZX30C3UsVJ1ikjRUfcDjiJskcCcwc0Dm9b4SYonUx9IbsFwi4BAg==
-----END RSA PRIVATE KEY-----
Decoded Key:
Private-Key: (2048 bit)
modulus:
    00:d7:99:42:e9:d5:fc:42:aa:1b:02:fa:58:cf:77:
    db:0e:2d:09:bf:03:a2:57:1a:df:ff:95:43:b7:eb:
    d0:c3:2a:46:4b:5c:8b:63:32:05:fb:90:bf:c6:53:
    dd:97:f1:79:6c:ba:6a:3a:fb:72:c2:06:d2:7f:4b:
    68:ec:00:cf:50:10:b2:6e:cb:36:92:b0:3f:ff:7c:
    84:06:a6:76:3e:04:c2:3c:ba:5b:b0:43:c8:bf:3e:
    e5:a6:3f:69:4a:27:79:ce:2a:2a:58:db:bd:33:27:
    b7:43:2e:51:31:b9:38:b2:7b:71:96:4f:80:04:b9:
    74:3f:8b:9d:36:f3:34:fa:34:fa:76:3d:27:0e:94:
    29:92:ba:f1:1d:e0:e8:34:48:00:7b:94:e0:7e:52:
    e2:dc:13:8d:49:c2:e5:e8:ec:bb:18:55:23:5e:31:
    c3:64:72:98:d1:e2:dd:cc:75:72:50:60:a0:c8:e3:
    8f:3e:f7:2e:6c:bf:0c:f5:3b:25:aa:0d:a0:2b:46:
    63:c8:f0:e5:dd:71:da:43:b2:72:ef:98:5a:30:72:
    6a:4c:1e:68:03:e8:e9:45:a2:93:3d:a8:6d:ab:92:
    84:98:99:a4:24:4d:ee:84:d8:36:54:1b:4a:f9:6c:
    52:f6:f9:af:2e:4e:54:6a:90:7a:3f:f8:f1:ab:25:
    0c:f1
publicExponent: 65537 (0x10001)
privateExponent:
    27:dc:91:4f:94:9d:c8:61:95:0e:ee:e4:7e:af:65:
    53:f0:a5:cd:a8:49:5a:9b:80:70:cb:d3:32:6d:2a:
    32:fb:5c:f5:d0:0d:81:70:9d:44:8e:d5:b6:40:89:
    46:ef:81:88:c5:ca:a0:4f:1f:3f:9a:6d:4e:d5:cd:
    77:5d:0a:f7:7d:ae:cf:e7:48:96:c4:79:80:ae:2f:
    e6:de:de:1b:c7:5b:76:48:ea:6c:e3:8b:79:38:92:
    d3:33:04:2f:8e:ae:e9:9c:48:2a:17:ae:9a:87:ac:
    4d:82:81:c6:94:bd:53:da:98:fc:b6:84:2f:db:6e:
    0f:d5:ab:62:9e:82:dc:03:9a:99:77:e7:e3:f5:c6:
    4d:5e:10:bf:32:5d:e6:2d:1a:d8:9b:29:4a:df:b0:
    cf:eb:17:c2:55:96:50:ca:29:ee:70:46:36:4f:da:
    77:9d:9c:83:8d:49:0b:1e:56:70:d3:d0:54:b8:1c:
    e2:06:d1:19:bb:ff:64:a4:74:22:67:72:84:3d:bb:
    ce:5b:4a:00:69:76:03:22:54:3f:a8:d3:c9:2d:33:
    49:b5:a5:7f:1d:89:9c:a2:54:5d:3a:bf:63:d4:d3:
    4f:00:de:b6:a9:aa:5a:37:d9:6a:4b:39:7b:a1:86:
    0e:dd:ca:d7:eb:1d:79:fa:5a:bf:25:91:c9:f0:b6:
    75
prime1:
    00:f5:a6:9a:4e:81:16:b4:30:50:ea:de:13:a5:c7:
    48:a1:5a:b4:36:c1:df:98:d7:60:4e:31:98:dc:ab:
    28:f9:b6:60:b1:40:e1:2a:9f:da:39:bf:00:40:65:
    19:18:25:5c:d4:eb:94:43:ae:89:1b:74:6b:67:1e:
    ed:44:dd:f8:7a:ae:4c:1e:c4:4f:89:39:dd:53:b6:
    ef:2c:80:6a:e8:b9:a9:4d:36:80:e1:f6:73:6f:35:
    9c:d9:c3:9b:29:77:1d:25:1b:b1:c9:df:2f:b9:2d:
    5b:b5:d8:70:c0:95:db:43:e8:13:c3:e6:72:6e:67:
    0c:3d:5e:20:b8:ca:59:60:37
prime2:
    00:e0:ae:8a:3f:00:83:af:80:b3:f7:ba:ad:0f:33:
    9d:98:02:64:03:8c:37:8c:32:8c:6b:d5:44:89:84:
    be:0e:91:b8:2d:44:ed:5d:c5:3f:9c:d8:bf:3c:30:
    35:d8:ac:d0:da:df:f0:f8:51:cb:33:63:8b:c2:63:
    44:e1:f0:ea:98:ff:79:d5:e2:e8:b8:f3:5e:4d:ca:
    0b:c6:ad:70:2c:d2:39:9b:5d:4d:41:ab:1c:43:05:
    b1:3c:7f:29:8a:f8:22:a8:10:5e:e9:42:57:a1:d5:
    46:36:5d:86:6a:e4:20:59:dc:a3:ab:7b:73:ec:28:
    ea:5f:8a:a5:38:de:09:d8:17
exponent1:
    7f:f6:60:6d:42:8b:6c:23:bb:13:0d:ca:18:52:5e:
    40:47:3a:97:47:98:cd:4a:6c:4d:6f:42:9c:b8:c0:
    68:8c:1b:84:5a:32:b0:fc:82:36:10:8b:f5:ff:73:
    fa:03:04:7f:99:94:2b:49:90:fc:6f:41:bf:7e:f9:
    c4:25:08:da:07:4f:79:bb:73:5f:1d:78:70:b2:5b:
    96:c7:f2:68:f6:c5:fd:85:c5:cf:6f:8d:24:42:3e:
    49:a5:be:7e:f4:20:87:83:0c:b3:07:03:1a:28:49:
    9c:c9:79:ba:a8:95:86:a3:2f:20:9e:3b:bf:cd:08:
    30:33:87:42:1b:8e:41:33
exponent2:
    00:b4:39:2d:29:56:27:4b:2a:c8:b1:28:eb:52:6b:
    4b:b9:38:09:b3:92:d0:a7:c3:90:41:9b:03:6b:ef:
    af:68:0e:59:16:ee:d8:1b:c4:71:bf:45:59:38:55:
    4f:8b:eb:2b:68:b6:03:1b:9c:b8:8b:13:09:73:36:
    9f:75:41:03:5d:10:68:51:39:bf:05:44:29:db:e9:
    fa:c2:36:32:e9:b1:03:86:6d:33:e0:3d:f9:e0:84:
    fb:63:14:79:65:40:9e:c4:02:c5:af:03:89:39:85:
    d2:d9:1e:f2:08:61:ce:d5:66:17:5f:21:1a:9e:4f:
    3f:98:bd:a4:c4:55:ce:bd:a7
coefficient:
    00:86:7f:f0:99:6d:f9:22:bd:85:b3:88:c4:17:71:
    fe:de:77:6c:57:79:5e:83:78:c1:0f:74:78:b1:b0:
    0e:e6:fd:79:ea:33:e7:c7:39:2b:38:8e:9b:ee:ff:
    3f:e8:49:3d:d0:c5:fd:a0:10:e7:24:e1:22:94:4a:
    fa:8c:34:55:25:94:d2:bb:3e:20:d0:e9:ae:a0:4a:
    40:24:2a:bb:db:03:5f:8b:e5:2c:4b:43:5e:1d:d2:
    a6:57:df:40:b7:52:c5:49:d6:29:23:45:47:dc:0e:
    38:89:b2:47:02:73:07:34:0e:6f:5b:e1:26:28:9d:
    4c:7d:21:bb:05:c2:2e:01:02